target datalayout = "e-m:e-p270:32:32-p271:32:32-p272:64:64-i64:64-i128:128-f80:128-n8:16:32:64-S128"
target triple = "x86_64-pc-linux-gnu"

%struct.SN_env = type { ptr, i32, i32, i32, i32, i32, ptr, ptr }

@g_v = internal constant [17 x i8] c"\11A\10\01\00\00\00\00\00\00\00\00\00\00\00\00\80", align 16

; Function Attrs: nounwind uwtable
define internal i32 @r_R1(ptr noundef %0) #0 {
  %2 = alloca i32, align 4
  %3 = alloca ptr, align 8
  store ptr %0, ptr %3, align 8
  %4 = load ptr, ptr %3, align 8
  %5 = getelementptr inbounds nuw %struct.SN_env, ptr %4, i32 0, i32 7
  %6 = load ptr, ptr %5, align 8
  %7 = getelementptr inbounds i32, ptr %6, i64 1
  %8 = load i32, ptr %7, align 4
  %9 = load ptr, ptr %3, align 8
  %10 = getelementptr inbounds nuw %struct.SN_env, ptr %9, i32 0, i32 1
  %11 = load i32, ptr %10, align 8
  %12 = icmp sle i32 %8, %11
  br i1 %12, label %14, label %13

13:                                               ; preds = %1
  store i32 0, ptr %2, align 4
  br label %15

14:                                               ; preds = %1
  store i32 1, ptr %2, align 4
  br label %15

15:                                               ; preds = %14, %13
  %16 = load i32, ptr %2, align 4
  ret i32 %16
}

; Function Attrs: nounwind uwtable
define internal i32 @r_e_ending(ptr noundef %0) #0 {
  %2 = alloca i32, align 4
  %3 = alloca ptr, align 8
  %4 = alloca i32, align 4
  %5 = alloca i32, align 4
  %6 = alloca i32, align 4
  %7 = alloca i32, align 4
  %8 = alloca i32, align 4
  store ptr %0, ptr %3, align 8
  %9 = load ptr, ptr %3, align 8
  %10 = getelementptr inbounds nuw %struct.SN_env, ptr %9, i32 0, i32 7
  %11 = load ptr, ptr %10, align 8
  %12 = getelementptr inbounds i32, ptr %11, i64 2
  store i32 0, ptr %12, align 4
  %13 = load ptr, ptr %3, align 8
  %14 = getelementptr inbounds nuw %struct.SN_env, ptr %13, i32 0, i32 1
  %15 = load i32, ptr %14, align 8
  %16 = load ptr, ptr %3, align 8
  %17 = getelementptr inbounds nuw %struct.SN_env, ptr %16, i32 0, i32 5
  store i32 %15, ptr %17, align 8
  %18 = load ptr, ptr %3, align 8
  %19 = getelementptr inbounds nuw %struct.SN_env, ptr %18, i32 0, i32 1
  %20 = load i32, ptr %19, align 8
  %21 = load ptr, ptr %3, align 8
  %22 = getelementptr inbounds nuw %struct.SN_env, ptr %21, i32 0, i32 3
  %23 = load i32, ptr %22, align 8
  %24 = icmp sle i32 %20, %23
  br i1 %24, label %38, label %25

25:                                               ; preds = %1
  %26 = load ptr, ptr %3, align 8
  %27 = getelementptr inbounds nuw %struct.SN_env, ptr %26, i32 0, i32 0
  %28 = load ptr, ptr %27, align 8
  %29 = load ptr, ptr %3, align 8
  %30 = getelementptr inbounds nuw %struct.SN_env, ptr %29, i32 0, i32 1
  %31 = load i32, ptr %30, align 8
  %32 = sub i32 %31, 1
  %33 = sext i32 %32 to i64
  %34 = getelementptr inbounds i8, ptr %28, i64 %33
  %35 = load i8, ptr %34, align 1
  %36 = zext i8 %35 to i32
  %37 = icmp ne i32 %36, 101
  br i1 %37, label %38, label %39

38:                                               ; preds = %25, %1
  store i32 0, ptr %2, align 4
  br label %105

39:                                               ; preds = %25
  %40 = load ptr, ptr %3, align 8
  %41 = getelementptr inbounds nuw %struct.SN_env, ptr %40, i32 0, i32 1
  %42 = load i32, ptr %41, align 8
  %43 = add i32 %42, -1
  store i32 %43, ptr %41, align 8
  %44 = load ptr, ptr %3, align 8
  %45 = getelementptr inbounds nuw %struct.SN_env, ptr %44, i32 0, i32 1
  %46 = load i32, ptr %45, align 8
  %47 = load ptr, ptr %3, align 8
  %48 = getelementptr inbounds nuw %struct.SN_env, ptr %47, i32 0, i32 4
  store i32 %46, ptr %48, align 4
  call void @llvm.lifetime.start.p0(i64 4, ptr %4) #3
  %49 = load ptr, ptr %3, align 8
  %50 = call i32 @r_R1(ptr noundef %49)
  store i32 %50, ptr %4, align 4
  %51 = load i32, ptr %4, align 4
  %52 = icmp sle i32 %51, 0
  br i1 %52, label %53, label %55

53:                                               ; preds = %39
  %54 = load i32, ptr %4, align 4
  store i32 %54, ptr %2, align 4
  store i32 1, ptr %5, align 4
  br label %56

55:                                               ; preds = %39
  store i32 0, ptr %5, align 4
  br label %56

56:                                               ; preds = %55, %53
  call void @llvm.lifetime.end.p0(i64 4, ptr %4) #3
  %57 = load i32, ptr %5, align 4
  switch i32 %57, label %107 [
    i32 0, label %58
    i32 1, label %105
  ]

58:                                               ; preds = %56
  call void @llvm.lifetime.start.p0(i64 4, ptr %6) #3
  %59 = load ptr, ptr %3, align 8
  %60 = getelementptr inbounds nuw %struct.SN_env, ptr %59, i32 0, i32 2
  %61 = load i32, ptr %60, align 4
  %62 = load ptr, ptr %3, align 8
  %63 = getelementptr inbounds nuw %struct.SN_env, ptr %62, i32 0, i32 1
  %64 = load i32, ptr %63, align 8
  %65 = sub i32 %61, %64
  store i32 %65, ptr %6, align 4
  %66 = load ptr, ptr %3, align 8
  %67 = call i32 @out_grouping_b_U(ptr noundef %66, ptr noundef @g_v, i32 noundef 97, i32 noundef 232, i32 noundef 0)
  %68 = icmp ne i32 %67, 0
  br i1 %68, label %69, label %70

69:                                               ; preds = %58
  store i32 0, ptr %2, align 4
  store i32 1, ptr %5, align 4
  br label %78

70:                                               ; preds = %58
  %71 = load ptr, ptr %3, align 8
  %72 = getelementptr inbounds nuw %struct.SN_env, ptr %71, i32 0, i32 2
  %73 = load i32, ptr %72, align 4
  %74 = load i32, ptr %6, align 4
  %75 = sub i32 %73, %74
  %76 = load ptr, ptr %3, align 8
  %77 = getelementptr inbounds nuw %struct.SN_env, ptr %76, i32 0, i32 1
  store i32 %75, ptr %77, align 8
  store i32 0, ptr %5, align 4
  br label %78

78:                                               ; preds = %70, %69
  call void @llvm.lifetime.end.p0(i64 4, ptr %6) #3
  %79 = load i32, ptr %5, align 4
  switch i32 %79, label %107 [
    i32 0, label %80
    i32 1, label %105
  ]

80:                                               ; preds = %78
  call void @llvm.lifetime.start.p0(i64 4, ptr %7) #3
  %81 = load ptr, ptr %3, align 8
  %82 = call i32 @slice_del(ptr noundef %81)
  store i32 %82, ptr %7, align 4
  %83 = load i32, ptr %7, align 4
  %84 = icmp slt i32 %83, 0
  br i1 %84, label %85, label %87

85:                                               ; preds = %80
  %86 = load i32, ptr %7, align 4
  store i32 %86, ptr %2, align 4
  store i32 1, ptr %5, align 4
  br label %88

87:                                               ; preds = %80
  store i32 0, ptr %5, align 4
  br label %88

88:                                               ; preds = %87, %85
  call void @llvm.lifetime.end.p0(i64 4, ptr %7) #3
  %89 = load i32, ptr %5, align 4
  switch i32 %89, label %107 [
    i32 0, label %90
    i32 1, label %105
  ]

90:                                               ; preds = %88
  %91 = load ptr, ptr %3, align 8
  %92 = getelementptr inbounds nuw %struct.SN_env, ptr %91, i32 0, i32 7
  %93 = load ptr, ptr %92, align 8
  %94 = getelementptr inbounds i32, ptr %93, i64 2
  store i32 1, ptr %94, align 4
  call void @llvm.lifetime.start.p0(i64 4, ptr %8) #3
  %95 = load ptr, ptr %3, align 8
  %96 = call i32 @r_undouble(ptr noundef %95)
  store i32 %96, ptr %8, align 4
  %97 = load i32, ptr %8, align 4
  %98 = icmp sle i32 %97, 0
  br i1 %98, label %99, label %101

99:                                               ; preds = %90
  %100 = load i32, ptr %8, align 4
  store i32 %100, ptr %2, align 4
  store i32 1, ptr %5, align 4
  br label %102

101:                                              ; preds = %90
  store i32 0, ptr %5, align 4
  br label %102

102:                                              ; preds = %101, %99
  call void @llvm.lifetime.end.p0(i64 4, ptr %8) #3
  %103 = load i32, ptr %5, align 4
  switch i32 %103, label %107 [
    i32 0, label %104
    i32 1, label %105
  ]

104:                                              ; preds = %102
  store i32 1, ptr %2, align 4
  br label %105

105:                                              ; preds = %104, %102, %88, %78, %56, %38
  %106 = load i32, ptr %2, align 4
  ret i32 %106

107:                                              ; preds = %102, %88, %78, %56
  unreachable
}