; Function Attrs: nounwind uwtable
define internal fastcc range(i32 -2147483648, 2) i32 @r_e_ending(ptr noundef initializes((24, 28)) %0) unnamed_addr #0 {
  %2 = getelementptr inbounds nuw i8, ptr %0, i64 40
  %3 = load ptr, ptr %2, align 8
  %4 = getelementptr inbounds nuw i8, ptr %3, i64 8
  store i32 0, ptr %4, align 4
  %5 = getelementptr inbounds nuw i8, ptr %0, i64 8
  %6 = load i32, ptr %5, align 8
  %7 = getelementptr inbounds nuw i8, ptr %0, i64 24
  store i32 %6, ptr %7, align 8
  %8 = getelementptr inbounds nuw i8, ptr %0, i64 16
  %9 = load i32, ptr %8, align 8
  %.not = icmp sgt i32 %6, %9
  br i1 %.not, label %10, label %32

10:                                               ; preds = %1
  %11 = load ptr, ptr %0, align 8
  %12 = add nsw i32 %6, -1
  %13 = sext i32 %12 to i64
  %14 = getelementptr inbounds i8, ptr %11, i64 %13
  %15 = load i8, ptr %14, align 1
  %.not37 = icmp eq i8 %15, 101
  br i1 %.not37, label %16, label %32

16:                                               ; preds = %10
  store i32 %12, ptr %5, align 8
  %17 = getelementptr inbounds nuw i8, ptr %0, i64 20
  store i32 %12, ptr %17, align 4
  %.val45 = load ptr, ptr %2, align 8
  %18 = getelementptr i8, ptr %.val45, i64 4
  %.val45.val = load i32, ptr %18, align 4
  %.not.i = icmp slt i32 %.val45.val, %6
  br i1 %.not.i, label %19, label %32

19:                                               ; preds = %16
  %20 = getelementptr inbounds nuw i8, ptr %0, i64 12
  %21 = load i32, ptr %20, align 4
  %22 = tail call i32 @out_grouping_b_U(ptr noundef nonnull %0, ptr noundef nonnull @g_v, i32 noundef 97, i32 noundef 232, i32 noundef 0) #3
  %.not39.not = icmp eq i32 %22, 0
  br i1 %.not39.not, label %23, label %32

23:                                               ; preds = %19
  %.neg = sub i32 %12, %21
  %24 = load i32, ptr %20, align 4
  %25 = add i32 %.neg, %24
  store i32 %25, ptr %5, align 8
  %26 = tail call i32 @slice_del(ptr noundef nonnull %0) #3
  %27 = icmp sgt i32 %26, -1
  br i1 %27, label %28, label %32

28:                                               ; preds = %23
  %29 = load ptr, ptr %2, align 8
  %30 = getelementptr inbounds nuw i8, ptr %29, i64 8
  store i32 1, ptr %30, align 4
  %31 = tail call fastcc i32 @r_undouble(ptr noundef nonnull %0)
  br label %32

32:                                               ; preds = %19, %28, %23, %16, %1, %10
  %.0 = phi i32 [ 0, %16 ], [ %26, %23 ], [ 0, %10 ], [ 0, %1 ], [ %31, %28 ], [ 0, %19 ]
  ret i32 %.0
}